target datalayout = "e-m:e-p270:32:32-p271:32:32-p272:64:64-i64:64-i128:128-f80:128-n8:16:32:64-S128"
target triple = "x86_64-pc-linux-gnu"

%struct.global_State = type { ptr, ptr, %struct.GCState, %struct.GCstr, i8, i8, i8, i8, %struct.StrInternState, i32, %struct.GCRef, %struct.SBuf, %union.TValue, %union.TValue, %struct.Node, %union.TValue, %struct.GCupval, i32, i32, ptr, ptr, ptr, i32, i32, %struct.GCRef, %struct.MRef, %struct.MRef, %struct.PRNGState, [39 x %struct.GCRef] }
%struct.GCState = type { i64, i64, i8, i8, i8, i8, i32, %struct.GCRef, %struct.MRef, %struct.GCRef, %struct.GCRef, %struct.GCRef, %struct.GCRef, i64, i64, i32, i32, %struct.MRef }
%struct.GCstr = type { %struct.GCRef, i8, i8, i8, i8, i32, i32, i32 }
%struct.StrInternState = type { ptr, i32, i32, i32, i8, i8, i8, i8, i64 }
%struct.SBuf = type { ptr, ptr, ptr, %struct.MRef }
%struct.Node = type { %union.TValue, %union.TValue, %struct.MRef }
%union.TValue = type { i64 }
%struct.GCupval = type { %struct.GCRef, i8, i8, i8, i8, %union.anon, %struct.MRef, i32 }
%union.anon = type { %struct.anon.1 }
%struct.anon.1 = type { %struct.GCRef, %struct.GCRef }
%struct.GCRef = type { i64 }
%struct.MRef = type { i64 }
%struct.PRNGState = type { [4 x i64] }

; Function Attrs: nounwind uwtable
define hidden void @lj_gc_barrieruv(ptr noundef %0, ptr noundef %1) #0 {
  %3 = alloca ptr, align 8
  %4 = alloca ptr, align 8
  store ptr %0, ptr %3, align 8, !tbaa !4
  store ptr %1, ptr %4, align 8, !tbaa !45
  %5 = load ptr, ptr %3, align 8, !tbaa !4
  %6 = getelementptr inbounds nuw %struct.global_State, ptr %5, i32 0, i32 2
  %7 = getelementptr inbounds nuw %struct.GCState, ptr %6, i32 0, i32 3
  %8 = load i8, ptr %7, align 1, !tbaa !84
  %9 = zext i8 %8 to i32
  %10 = icmp eq i32 %9, 1
  br i1 %10, label %18, label %11

11:                                               ; preds = %2
  %12 = load ptr, ptr %3, align 8, !tbaa !4
  %13 = getelementptr inbounds nuw %struct.global_State, ptr %12, i32 0, i32 2
  %14 = getelementptr inbounds nuw %struct.GCState, ptr %13, i32 0, i32 3
  %15 = load i8, ptr %14, align 1, !tbaa !84
  %16 = zext i8 %15 to i32
  %17 = icmp eq i32 %16, 2
  br i1 %17, label %18, label %25

18:                                               ; preds = %11, %2
  %19 = load ptr, ptr %3, align 8, !tbaa !4
  %20 = load ptr, ptr %4, align 8, !tbaa !45
  %21 = getelementptr inbounds nuw %struct.GCRef, ptr %20, i32 0, i32 0
  %22 = load i64, ptr %21, align 8, !tbaa !30
  %23 = and i64 %22, 140737488355327
  %24 = inttoptr i64 %23 to ptr
  call void @gc_mark(ptr noundef %19, ptr noundef %24)
  br label %43

25:                                               ; preds = %11
  %26 = load ptr, ptr %4, align 8, !tbaa !45
  %27 = getelementptr inbounds i8, ptr %26, i64 -16
  %28 = getelementptr inbounds nuw i8, ptr %27, i64 8
  %29 = load i8, ptr %28, align 1, !tbaa !30
  %30 = zext i8 %29 to i32
  %31 = and i32 %30, 248
  %32 = load ptr, ptr %3, align 8, !tbaa !4
  %33 = getelementptr inbounds nuw %struct.global_State, ptr %32, i32 0, i32 2
  %34 = getelementptr inbounds nuw %struct.GCState, ptr %33, i32 0, i32 2
  %35 = load i8, ptr %34, align 8, !tbaa !44
  %36 = zext i8 %35 to i32
  %37 = and i32 %36, 3
  %38 = or i32 %31, %37
  %39 = trunc i32 %38 to i8
  %40 = load ptr, ptr %4, align 8, !tbaa !45
  %41 = getelementptr inbounds i8, ptr %40, i64 -16
  %42 = getelementptr inbounds nuw i8, ptr %41, i64 8
  store i8 %39, ptr %42, align 1, !tbaa !30
  br label %43

43:                                               ; preds = %25, %18
  ret void
}