; Function Attrs: nofree nosync nounwind memory(readwrite, inaccessiblemem: none) uwtable
define hidden void @lj_gc_barrieruv(ptr noundef %0, ptr noundef captures(none) %1) local_unnamed_addr #3 {
  %3 = getelementptr inbounds nuw i8, ptr %0, i64 33
  %4 = load i8, ptr %3, align 1, !tbaa !70
  %.off = add i8 %4, -1
  %switch = icmp ult i8 %.off, 2
  br i1 %switch, label %5, label %9

5:                                                ; preds = %2
  %6 = load i64, ptr %1, align 8, !tbaa !23
  %7 = and i64 %6, 140737488355327
  %8 = inttoptr i64 %7 to ptr
  tail call fastcc void @gc_mark(ptr noundef nonnull %0, ptr noundef %8)
  br label %17

9:                                                ; preds = %2
  %10 = getelementptr inbounds i8, ptr %1, i64 -8
  %11 = load i8, ptr %10, align 1, !tbaa !23
  %12 = and i8 %11, -8
  %13 = getelementptr inbounds nuw i8, ptr %0, i64 32
  %14 = load i8, ptr %13, align 8, !tbaa !35
  %15 = and i8 %14, 3
  %16 = or disjoint i8 %15, %12
  store i8 %16, ptr %10, align 1, !tbaa !23
  br label %17

17:                                               ; preds = %9, %5
  ret void
}